; ModuleID = '1/43.c'
source_filename = "1/43.c"
target datalayout = "e-m:e-p270:32:32-p271:32:32-p272:64:64-i64:64-f80:128-n8:16:32:64-S128"
target triple = "x86_64-pc-linux-gnu"

@.str = private unnamed_addr constant [3 x i8] c"%d\00", align 1
@.str.1 = private unnamed_addr constant [4 x i8] c"%d\0A\00", align 1

; Function Attrs: noinline nounwind uwtable
define dso_local void @main() #0 {
  %1 = alloca i32, align 4
  %2 = alloca i32, align 4
  %3 = call i32 (i8*, ...) @__isoc99_scanf(i8* getelementptr inbounds ([3 x i8], [3 x i8]* @.str, i64 0, i64 0), i32* %1)
  br label %4

4:                                                ; preds = %8, %0
  %5 = load i32, i32* %1, align 4
  %6 = add nsw i32 %5, -1
  store i32 %6, i32* %1, align 4
  %7 = icmp sgt i32 %5, 0
  br i1 %7, label %8, label %13

8:                                                ; preds = %4
  %9 = call i32 (i8*, ...) @__isoc99_scanf(i8* getelementptr inbounds ([3 x i8], [3 x i8]* @.str, i64 0, i64 0), i32* %2)
  %10 = load i32, i32* %2, align 4
  %11 = call i32 @ways(i32 %10, i32 2)
  %12 = call i32 (i8*, ...) @printf(i8* getelementptr inbounds ([4 x i8], [4 x i8]* @.str.1, i64 0, i64 0), i32 %11)
  br label %4

13:                                               ; preds = %4
  ret void
}

declare dso_local i32 @__isoc99_scanf(i8*, ...) #1

declare dso_local i32 @printf(i8*, ...) #1

; Function Attrs: noinline nounwind uwtable
define dso_local i32 @ways(i32 %0, i32 %1) #0 {
  %3 = alloca i32, align 4
  %4 = alloca i32, align 4
  %5 = alloca i32, align 4
  %6 = alloca i32, align 4
  %7 = alloca i32, align 4
  store i32 %0, i32* %4, align 4
  store i32 %1, i32* %5, align 4
  %8 = load i32, i32* %4, align 4
  %9 = load i32, i32* %5, align 4
  %10 = icmp slt i32 %8, %9
  br i1 %10, label %11, label %12

11:                                               ; preds = %2
  store i32 0, i32* %3, align 4
  br label %42

12:                                               ; preds = %2
  store i32 0, i32* %6, align 4
  %13 = load i32, i32* %5, align 4
  store i32 %13, i32* %7, align 4
  br label %14

14:                                               ; preds = %36, %12
  %15 = load i32, i32* %7, align 4
  %16 = sitofp i32 %15 to double
  %17 = load i32, i32* %4, align 4
  %18 = sitofp i32 %17 to double
  %19 = fmul double %18, 1.000000e+00
  %20 = call double @sqrt(double %19) #3
  %21 = fcmp ole double %16, %20
  br i1 %21, label %22, label %39

22:                                               ; preds = %14
  %23 = load i32, i32* %4, align 4
  %24 = load i32, i32* %7, align 4
  %25 = srem i32 %23, %24
  %26 = icmp eq i32 %25, 0
  br i1 %26, label %27, label %35

27:                                               ; preds = %22
  %28 = load i32, i32* %6, align 4
  %29 = load i32, i32* %4, align 4
  %30 = load i32, i32* %7, align 4
  %31 = sdiv i32 %29, %30
  %32 = load i32, i32* %7, align 4
  %33 = call i32 @ways(i32 %31, i32 %32)
  %34 = add nsw i32 %28, %33
  store i32 %34, i32* %6, align 4
  br label %35

35:                                               ; preds = %27, %22
  br label %36

36:                                               ; preds = %35
  %37 = load i32, i32* %7, align 4
  %38 = add nsw i32 %37, 1
  store i32 %38, i32* %7, align 4
  br label %14

39:                                               ; preds = %14
  %40 = load i32, i32* %6, align 4
  %41 = add nsw i32 %40, 1
  store i32 %41, i32* %3, align 4
  br label %42

42:                                               ; preds = %39, %11
  %43 = load i32, i32* %3, align 4
  ret i32 %43
}

; Function Attrs: nounwind
declare dso_local double @sqrt(double) #2


!llvm.module.flags = !{!0}
!llvm.ident = !{!1}

!0 = !{i32 1, !"wchar_size", i32 4}
!1 = !{!"clang version 10.0.0-4ubuntu1 "}
