; ModuleID = 'source-C-CXX/0/43.c'
source_filename = "source-C-CXX/0/43.c"
target datalayout = "e-m:e-p270:32:32-p271:32:32-p272:64:64-i64:64-f80:128-n8:16:32:64-S128"
target triple = "x86_64-pc-linux-gnu"

@.str = private unnamed_addr constant [3 x i8] c"%d\00", align 1
@.str.1 = private unnamed_addr constant [4 x i8] c"%d\0A\00", align 1

; Function Attrs: nofree nounwind sspstrong uwtable
define dso_local void @main() local_unnamed_addr #0 {
  %1 = alloca i32, align 4
  %2 = alloca i32, align 4
  %3 = bitcast i32* %1 to i8*
  call void @llvm.lifetime.start.p0i8(i64 4, i8* nonnull %3) #4
  %4 = bitcast i32* %2 to i8*
  call void @llvm.lifetime.start.p0i8(i64 4, i8* nonnull %4) #4
  %5 = call i32 (i8*, ...) @__isoc99_scanf(i8* getelementptr inbounds ([3 x i8], [3 x i8]* @.str, i64 0, i64 0), i32* nonnull %1)
  %6 = load i32, i32* %1, align 4, !tbaa !5
  %7 = add nsw i32 %6, -1
  store i32 %7, i32* %1, align 4, !tbaa !5
  %8 = icmp sgt i32 %6, 0
  br i1 %8, label %9, label %17

9:                                                ; preds = %0, %9
  %10 = call i32 (i8*, ...) @__isoc99_scanf(i8* getelementptr inbounds ([3 x i8], [3 x i8]* @.str, i64 0, i64 0), i32* nonnull %2)
  %11 = load i32, i32* %2, align 4, !tbaa !5
  %12 = call i32 @ways(i32 %11, i32 2)
  %13 = call i32 (i8*, ...) @printf(i8* nonnull dereferenceable(1) getelementptr inbounds ([4 x i8], [4 x i8]* @.str.1, i64 0, i64 0), i32 %12)
  %14 = load i32, i32* %1, align 4, !tbaa !5
  %15 = add nsw i32 %14, -1
  store i32 %15, i32* %1, align 4, !tbaa !5
  %16 = icmp sgt i32 %14, 0
  br i1 %16, label %9, label %17, !llvm.loop !9

17:                                               ; preds = %9, %0
  call void @llvm.lifetime.end.p0i8(i64 4, i8* nonnull %4) #4
  call void @llvm.lifetime.end.p0i8(i64 4, i8* nonnull %3) #4
  ret void
}

; Function Attrs: argmemonly mustprogress nofree nosync nounwind willreturn
declare void @llvm.lifetime.start.p0i8(i64 immarg, i8* nocapture) #1

; Function Attrs: nofree nounwind
declare noundef i32 @__isoc99_scanf(i8* nocapture noundef readonly, ...) local_unnamed_addr #2

; Function Attrs: nofree nounwind
declare noundef i32 @printf(i8* nocapture noundef readonly, ...) local_unnamed_addr #2

; Function Attrs: nofree nounwind sspstrong uwtable
define dso_local i32 @ways(i32 %0, i32 %1) local_unnamed_addr #0 {
  %3 = icmp slt i32 %0, %1
  br i1 %3, label %27, label %4

4:                                                ; preds = %2
  %5 = sitofp i32 %0 to double
  %6 = sitofp i32 %1 to double
  %7 = tail call double @sqrt(double %5) #4
  %8 = fcmp ult double %7, %6
  br i1 %8, label %24, label %9

9:                                                ; preds = %4, %18
  %10 = phi i32 [ %20, %18 ], [ %1, %4 ]
  %11 = phi i32 [ %19, %18 ], [ 0, %4 ]
  %12 = srem i32 %0, %10
  %13 = sdiv i32 %0, %10
  %14 = icmp eq i32 %12, 0
  br i1 %14, label %15, label %18

15:                                               ; preds = %9
  %16 = tail call i32 @ways(i32 %13, i32 %10)
  %17 = add nsw i32 %16, %11
  br label %18

18:                                               ; preds = %9, %15
  %19 = phi i32 [ %17, %15 ], [ %11, %9 ]
  %20 = add nsw i32 %10, 1
  %21 = sitofp i32 %20 to double
  %22 = tail call double @sqrt(double %5) #4
  %23 = fcmp ult double %22, %21
  br i1 %23, label %24, label %9, !llvm.loop !11

24:                                               ; preds = %18, %4
  %25 = phi i32 [ 0, %4 ], [ %19, %18 ]
  %26 = add nsw i32 %25, 1
  br label %27

27:                                               ; preds = %2, %24
  %28 = phi i32 [ %26, %24 ], [ 0, %2 ]
  ret i32 %28
}

; Function Attrs: argmemonly mustprogress nofree nosync nounwind willreturn
declare void @llvm.lifetime.end.p0i8(i64 immarg, i8* nocapture) #1

; Function Attrs: mustprogress nofree nounwind willreturn
declare double @sqrt(double) local_unnamed_addr #3


!llvm.module.flags = !{!0, !1, !2, !3}
!llvm.ident = !{!4}

!0 = !{i32 1, !"wchar_size", i32 4}
!1 = !{i32 7, !"PIC Level", i32 2}
!2 = !{i32 7, !"PIE Level", i32 2}
!3 = !{i32 7, !"uwtable", i32 1}
!4 = !{!"clang version 13.0.0"}
!5 = !{!6, !6, i64 0}
!6 = !{!"int", !7, i64 0}
!7 = !{!"omnipotent char", !8, i64 0}
!8 = !{!"Simple C/C++ TBAA"}
!9 = distinct !{!9, !10}
!10 = !{!"llvm.loop.mustprogress"}
!11 = distinct !{!11, !10}
